target datalayout = "e-m:e-p270:32:32-p271:32:32-p272:64:64-i64:64-i128:128-f80:128-n8:16:32:64-S128"
target triple = "x86_64-pc-linux-gnu"

%struct.strbuf = type { i64, i64, ptr }
%struct.ref_to_worktree_map = type { %struct.hashmap, ptr }
%struct.hashmap = type { ptr, ptr, ptr, i32, i32, i32, i32, i8 }
%struct.used_atom = type { i32, ptr, i32, i32, %union.anon }
%union.anon = type { %struct.anon.1 }
%struct.anon.1 = type { i32, %struct.process_trailer_options, ptr, i32 }
%struct.process_trailer_options = type { i32, i32, i32, i32, i32, i32, i32, i32, ptr, ptr, ptr, ptr }
%struct.ref_array = type { i32, i32, ptr, ptr, ptr, i64 }
%struct.anon.9 = type { ptr, ptr }
%struct.ref_trailer_buf = type { %struct.string_list, %struct.strbuf, %struct.strbuf }
%struct.string_list = type { ptr, i64, i64, i8, ptr }

@used_atom = internal global ptr null, align 8
@used_atom_cnt = internal global i32 0, align 4
@ref_to_worktree_map = internal global %struct.ref_to_worktree_map zeroinitializer, align 8

; Function Attrs: nounwind uwtable
define dso_local void @ref_array_clear(ptr noundef %0) #0 {
  %2 = alloca ptr, align 8
  %3 = alloca i32, align 4
  %4 = alloca ptr, align 8
  %5 = alloca ptr, align 8
  store ptr %0, ptr %2, align 8, !tbaa !66
  call void @llvm.lifetime.start.p0(i64 4, ptr %3) #11
  store i32 0, ptr %3, align 4, !tbaa !15
  br label %6

6:                                                ; preds = %20, %1
  %7 = load i32, ptr %3, align 4, !tbaa !15
  %8 = load ptr, ptr %2, align 8, !tbaa !66
  %9 = getelementptr inbounds nuw %struct.ref_array, ptr %8, i32 0, i32 0
  %10 = load i32, ptr %9, align 8, !tbaa !72
  %11 = icmp slt i32 %7, %10
  br i1 %11, label %12, label %23

12:                                               ; preds = %6
  %13 = load ptr, ptr %2, align 8, !tbaa !66
  %14 = getelementptr inbounds nuw %struct.ref_array, ptr %13, i32 0, i32 2
  %15 = load ptr, ptr %14, align 8, !tbaa !78
  %16 = load i32, ptr %3, align 4, !tbaa !15
  %17 = sext i32 %16 to i64
  %18 = getelementptr inbounds ptr, ptr %15, i64 %17
  %19 = load ptr, ptr %18, align 8, !tbaa !69
  call void @free_array_item(ptr noundef %19)
  br label %20

20:                                               ; preds = %12
  %21 = load i32, ptr %3, align 4, !tbaa !15
  %22 = add nsw i32 %21, 1
  store i32 %22, ptr %3, align 4, !tbaa !15
  br label %6, !llvm.loop !79

23:                                               ; preds = %6
  br label %24

24:                                               ; preds = %23
  %25 = load ptr, ptr %2, align 8, !tbaa !66
  %26 = getelementptr inbounds nuw %struct.ref_array, ptr %25, i32 0, i32 2
  %27 = load ptr, ptr %26, align 8, !tbaa !78
  call void @free(ptr noundef %27) #11
  %28 = load ptr, ptr %2, align 8, !tbaa !66
  %29 = getelementptr inbounds nuw %struct.ref_array, ptr %28, i32 0, i32 2
  store ptr null, ptr %29, align 8, !tbaa !78
  br label %30

30:                                               ; preds = %24
  br label %31

31:                                               ; preds = %30
  %32 = load ptr, ptr %2, align 8, !tbaa !66
  %33 = getelementptr inbounds nuw %struct.ref_array, ptr %32, i32 0, i32 1
  store i32 0, ptr %33, align 4, !tbaa !77
  %34 = load ptr, ptr %2, align 8, !tbaa !66
  %35 = getelementptr inbounds nuw %struct.ref_array, ptr %34, i32 0, i32 0
  store i32 0, ptr %35, align 8, !tbaa !72
  store i32 0, ptr %3, align 4, !tbaa !15
  br label %36

36:                                               ; preds = %110, %31
  %37 = load i32, ptr %3, align 4, !tbaa !15
  %38 = load i32, ptr @used_atom_cnt, align 4, !tbaa !15
  %39 = icmp slt i32 %37, %38
  br i1 %39, label %40, label %113

40:                                               ; preds = %36
  call void @llvm.lifetime.start.p0(i64 8, ptr %4) #11
  %41 = load ptr, ptr @used_atom, align 8, !tbaa !26
  %42 = load i32, ptr %3, align 4, !tbaa !15
  %43 = sext i32 %42 to i64
  %44 = getelementptr inbounds %struct.used_atom, ptr %41, i64 %43
  store ptr %44, ptr %4, align 8, !tbaa !26
  %45 = load ptr, ptr %4, align 8, !tbaa !26
  %46 = getelementptr inbounds nuw %struct.used_atom, ptr %45, i32 0, i32 0
  %47 = load i32, ptr %46, align 8, !tbaa !28
  %48 = icmp eq i32 %47, 36
  br i1 %48, label %49, label %53

49:                                               ; preds = %40
  %50 = load ptr, ptr %4, align 8, !tbaa !26
  %51 = getelementptr inbounds nuw %struct.used_atom, ptr %50, i32 0, i32 4
  %52 = load ptr, ptr %51, align 8, !tbaa !14
  call void @free(ptr noundef %52) #11
  br label %106

53:                                               ; preds = %40
  %54 = load ptr, ptr %4, align 8, !tbaa !26
  %55 = getelementptr inbounds nuw %struct.used_atom, ptr %54, i32 0, i32 0
  %56 = load i32, ptr %55, align 8, !tbaa !28
  %57 = icmp eq i32 %56, 25
  br i1 %57, label %58, label %61

58:                                               ; preds = %53
  %59 = load ptr, ptr %4, align 8, !tbaa !26
  %60 = getelementptr inbounds nuw %struct.used_atom, ptr %59, i32 0, i32 4
  call void @strvec_clear(ptr noundef %60)
  br label %105

61:                                               ; preds = %53
  %62 = load ptr, ptr %4, align 8, !tbaa !26
  %63 = getelementptr inbounds nuw %struct.used_atom, ptr %62, i32 0, i32 0
  %64 = load i32, ptr %63, align 8, !tbaa !28
  %65 = icmp eq i32 %64, 46
  br i1 %65, label %66, label %71

66:                                               ; preds = %61
  %67 = load ptr, ptr %4, align 8, !tbaa !26
  %68 = getelementptr inbounds nuw %struct.used_atom, ptr %67, i32 0, i32 4
  %69 = getelementptr inbounds nuw %struct.anon.9, ptr %68, i32 0, i32 0
  %70 = load ptr, ptr %69, align 8, !tbaa !14
  call void @free(ptr noundef %70) #11
  br label %104

71:                                               ; preds = %61
  %72 = load ptr, ptr %4, align 8, !tbaa !26
  %73 = getelementptr inbounds nuw %struct.used_atom, ptr %72, i32 0, i32 0
  %74 = load i32, ptr %73, align 8, !tbaa !28
  %75 = icmp eq i32 %74, 28
  br i1 %75, label %87, label %76

76:                                               ; preds = %71
  %77 = load ptr, ptr %4, align 8, !tbaa !26
  %78 = getelementptr inbounds nuw %struct.used_atom, ptr %77, i32 0, i32 0
  %79 = load i32, ptr %78, align 8, !tbaa !28
  %80 = icmp eq i32 %79, 29
  br i1 %80, label %81, label %103

81:                                               ; preds = %76
  %82 = load ptr, ptr %4, align 8, !tbaa !26
  %83 = getelementptr inbounds nuw %struct.used_atom, ptr %82, i32 0, i32 4
  %84 = getelementptr inbounds nuw %struct.anon.1, ptr %83, i32 0, i32 0
  %85 = load i32, ptr %84, align 8, !tbaa !14
  %86 = icmp eq i32 %85, 8
  br i1 %86, label %87, label %103

87:                                               ; preds = %81, %71
  call void @llvm.lifetime.start.p0(i64 8, ptr %5) #11
  %88 = load ptr, ptr %4, align 8, !tbaa !26
  %89 = getelementptr inbounds nuw %struct.used_atom, ptr %88, i32 0, i32 4
  %90 = getelementptr inbounds nuw %struct.anon.1, ptr %89, i32 0, i32 2
  %91 = load ptr, ptr %90, align 8, !tbaa !14
  store ptr %91, ptr %5, align 8, !tbaa !80
  %92 = load ptr, ptr %5, align 8, !tbaa !80
  %93 = icmp ne ptr %92, null
  br i1 %93, label %94, label %102

94:                                               ; preds = %87
  %95 = load ptr, ptr %5, align 8, !tbaa !80
  %96 = getelementptr inbounds nuw %struct.ref_trailer_buf, ptr %95, i32 0, i32 0
  call void @string_list_clear(ptr noundef %96, i32 noundef 0)
  %97 = load ptr, ptr %5, align 8, !tbaa !80
  %98 = getelementptr inbounds nuw %struct.ref_trailer_buf, ptr %97, i32 0, i32 1
  call void @strbuf_release(ptr noundef %98)
  %99 = load ptr, ptr %5, align 8, !tbaa !80
  %100 = getelementptr inbounds nuw %struct.ref_trailer_buf, ptr %99, i32 0, i32 2
  call void @strbuf_release(ptr noundef %100)
  %101 = load ptr, ptr %5, align 8, !tbaa !80
  call void @free(ptr noundef %101) #11
  br label %102

102:                                              ; preds = %94, %87
  call void @llvm.lifetime.end.p0(i64 8, ptr %5) #11
  br label %103

103:                                              ; preds = %102, %81, %76
  br label %104

104:                                              ; preds = %103, %66
  br label %105

105:                                              ; preds = %104, %58
  br label %106

106:                                              ; preds = %105, %49
  %107 = load ptr, ptr %4, align 8, !tbaa !26
  %108 = getelementptr inbounds nuw %struct.used_atom, ptr %107, i32 0, i32 1
  %109 = load ptr, ptr %108, align 8, !tbaa !31
  call void @free(ptr noundef %109) #11
  call void @llvm.lifetime.end.p0(i64 8, ptr %4) #11
  br label %110

110:                                              ; preds = %106
  %111 = load i32, ptr %3, align 4, !tbaa !15
  %112 = add nsw i32 %111, 1
  store i32 %112, ptr %3, align 4, !tbaa !15
  br label %36, !llvm.loop !82

113:                                              ; preds = %36
  br label %114

114:                                              ; preds = %113
  %115 = load ptr, ptr @used_atom, align 8, !tbaa !26
  call void @free(ptr noundef %115) #11
  store ptr null, ptr @used_atom, align 8, !tbaa !26
  br label %116

116:                                              ; preds = %114
  br label %117

117:                                              ; preds = %116
  store i32 0, ptr @used_atom_cnt, align 4, !tbaa !15
  %118 = load ptr, ptr getelementptr inbounds nuw (%struct.ref_to_worktree_map, ptr @ref_to_worktree_map, i32 0, i32 1), align 8, !tbaa !83
  %119 = icmp ne ptr %118, null
  br i1 %119, label %120, label %122

120:                                              ; preds = %117
  call void @hashmap_clear_(ptr noundef @ref_to_worktree_map, i64 noundef 0)
  %121 = load ptr, ptr getelementptr inbounds nuw (%struct.ref_to_worktree_map, ptr @ref_to_worktree_map, i32 0, i32 1), align 8, !tbaa !83
  call void @free_worktrees(ptr noundef %121)
  store ptr null, ptr getelementptr inbounds nuw (%struct.ref_to_worktree_map, ptr @ref_to_worktree_map, i32 0, i32 1), align 8, !tbaa !83
  br label %122

122:                                              ; preds = %120, %117
  br label %123

123:                                              ; preds = %122
  %124 = load ptr, ptr %2, align 8, !tbaa !66
  %125 = getelementptr inbounds nuw %struct.ref_array, ptr %124, i32 0, i32 4
  %126 = load ptr, ptr %125, align 8, !tbaa !88
  call void @free(ptr noundef %126) #11
  %127 = load ptr, ptr %2, align 8, !tbaa !66
  %128 = getelementptr inbounds nuw %struct.ref_array, ptr %127, i32 0, i32 4
  store ptr null, ptr %128, align 8, !tbaa !88
  br label %129

129:                                              ; preds = %123
  br label %130

130:                                              ; preds = %129
  call void @llvm.lifetime.end.p0(i64 4, ptr %3) #11
  ret void
}