; Function Attrs: nounwind uwtable
define dso_local void @ref_array_clear(ptr noundef captures(none) %0) local_unnamed_addr #0 {
  %2 = load i32, ptr %0, align 8, !tbaa !60
  %3 = icmp sgt i32 %2, 0
  br i1 %3, label %.lr.ph, label %._crit_edge

.lr.ph:                                           ; preds = %1
  %4 = getelementptr inbounds nuw i8, ptr %0, i64 8
  br label %5

5:                                                ; preds = %.lr.ph, %5
  %indvars.iv = phi i64 [ 0, %.lr.ph ], [ %indvars.iv.next, %5 ]
  %6 = load ptr, ptr %4, align 8, !tbaa !66
  %7 = getelementptr inbounds nuw ptr, ptr %6, i64 %indvars.iv
  %8 = load ptr, ptr %7, align 8, !tbaa !67
  tail call fastcc void @free_array_item(ptr noundef %8)
  %indvars.iv.next = add nuw nsw i64 %indvars.iv, 1
  %9 = load i32, ptr %0, align 8, !tbaa !60
  %10 = sext i32 %9 to i64
  %11 = icmp slt i64 %indvars.iv.next, %10
  br i1 %11, label %5, label %._crit_edge, !llvm.loop !69

._crit_edge:                                      ; preds = %5, %1
  %12 = getelementptr inbounds nuw i8, ptr %0, i64 8
  %13 = load ptr, ptr %12, align 8, !tbaa !66
  tail call void @free(ptr noundef %13) #23
  tail call void @llvm.memset.p0.i64(ptr noundef nonnull align 8 dereferenceable(16) %0, i8 0, i64 16, i1 false)
  %14 = load i32, ptr @used_atom_cnt, align 4, !tbaa !4
  %15 = icmp sgt i32 %14, 0
  br i1 %15, label %.lr.ph35, label %._crit_edge36

.lr.ph35:                                         ; preds = %._crit_edge, %37
  %indvars.iv38 = phi i64 [ %indvars.iv.next39, %37 ], [ 0, %._crit_edge ]
  %16 = load ptr, ptr @used_atom, align 8, !tbaa !25
  %17 = getelementptr inbounds nuw %struct.used_atom, ptr %16, i64 %indvars.iv38
  %18 = load i32, ptr %17, align 8, !tbaa !27
  switch i32 %18, label %37 [
    i32 36, label %19
    i32 25, label %22
    i32 46, label %24
    i32 28, label %31
    i32 29, label %27
  ]

19:                                               ; preds = %.lr.ph35
  %20 = getelementptr inbounds nuw i8, ptr %17, i64 24
  %21 = load ptr, ptr %20, align 8, !tbaa !15
  tail call void @free(ptr noundef %21) #23
  br label %37

22:                                               ; preds = %.lr.ph35
  %23 = getelementptr inbounds nuw i8, ptr %17, i64 24
  tail call void @strvec_clear(ptr noundef nonnull %23) #23
  br label %37

24:                                               ; preds = %.lr.ph35
  %25 = getelementptr inbounds nuw i8, ptr %17, i64 24
  %26 = load ptr, ptr %25, align 8, !tbaa !15
  tail call void @free(ptr noundef %26) #23
  br label %37

27:                                               ; preds = %.lr.ph35
  %28 = getelementptr inbounds nuw i8, ptr %17, i64 24
  %29 = load i32, ptr %28, align 8, !tbaa !15
  %30 = icmp eq i32 %29, 8
  br i1 %30, label %31, label %37

31:                                               ; preds = %.lr.ph35, %27
  %32 = getelementptr inbounds nuw i8, ptr %17, i64 96
  %33 = load ptr, ptr %32, align 8, !tbaa !15
  %.not31 = icmp eq ptr %33, null
  br i1 %.not31, label %37, label %34

34:                                               ; preds = %31
  tail call void @string_list_clear(ptr noundef nonnull %33, i32 noundef 0) #23
  %35 = getelementptr inbounds nuw i8, ptr %33, i64 40
  tail call void @strbuf_release(ptr noundef nonnull %35) #23
  %36 = getelementptr inbounds nuw i8, ptr %33, i64 64
  tail call void @strbuf_release(ptr noundef nonnull %36) #23
  tail call void @free(ptr noundef nonnull %33) #23
  br label %37

37:                                               ; preds = %31, %34, %.lr.ph35, %22, %27, %24, %19
  %38 = getelementptr inbounds nuw i8, ptr %17, i64 8
  %39 = load ptr, ptr %38, align 8, !tbaa !30
  tail call void @free(ptr noundef %39) #23
  %indvars.iv.next39 = add nuw nsw i64 %indvars.iv38, 1
  %40 = load i32, ptr @used_atom_cnt, align 4, !tbaa !4
  %41 = sext i32 %40 to i64
  %42 = icmp slt i64 %indvars.iv.next39, %41
  br i1 %42, label %.lr.ph35, label %._crit_edge36, !llvm.loop !70

._crit_edge36:                                    ; preds = %37, %._crit_edge
  %43 = load ptr, ptr @used_atom, align 8, !tbaa !25
  tail call void @free(ptr noundef %43) #23
  store ptr null, ptr @used_atom, align 8, !tbaa !25
  store i32 0, ptr @used_atom_cnt, align 4, !tbaa !4
  %44 = load ptr, ptr getelementptr inbounds nuw (i8, ptr @ref_to_worktree_map, i64 48), align 8, !tbaa !71
  %.not = icmp eq ptr %44, null
  br i1 %.not, label %47, label %45

45:                                               ; preds = %._crit_edge36
  tail call void @hashmap_clear_(ptr noundef nonnull @ref_to_worktree_map, i64 noundef 0) #23
  %46 = load ptr, ptr getelementptr inbounds nuw (i8, ptr @ref_to_worktree_map, i64 48), align 8, !tbaa !71
  tail call void @free_worktrees(ptr noundef %46) #23
  store ptr null, ptr getelementptr inbounds nuw (i8, ptr @ref_to_worktree_map, i64 48), align 8, !tbaa !71
  br label %47

47:                                               ; preds = %._crit_edge36, %45
  %48 = getelementptr inbounds nuw i8, ptr %0, i64 24
  %49 = load ptr, ptr %48, align 8, !tbaa !76
  tail call void @free(ptr noundef %49) #23
  store ptr null, ptr %48, align 8, !tbaa !76
  ret void
}